target datalayout = "e-m:e-p270:32:32-p271:32:32-p272:64:64-i64:64-i128:128-f80:128-n8:16:32:64-S128"
target triple = "x86_64-pc-linux-gnu"

%class.Handle = type { ptr }

; Function Attrs: mustprogress nounwind uwtable
define hidden void @_ZN15BaseFrameStream15fill_stackframeE6HandleRK12methodHandleP10JavaThread(ptr noundef nonnull align 8 dereferenceable(32) %0, ptr %1, ptr noundef nonnull align 8 dereferenceable(16) %2, ptr noundef %3) #1 align 2 {
  %5 = alloca %class.Handle, align 8
  %6 = alloca ptr, align 8
  %7 = alloca ptr, align 8
  %8 = alloca ptr, align 8
  %9 = alloca %class.Handle, align 8
  %10 = getelementptr inbounds %class.Handle, ptr %5, i32 0, i32 0
  store ptr %1, ptr %10, align 8
  store ptr %0, ptr %6, align 8
  store ptr %2, ptr %7, align 8
  store ptr %3, ptr %8, align 8
  %11 = load ptr, ptr %6, align 8
  call void @llvm.memcpy.p0.p0.i64(ptr align 8 %9, ptr align 8 %5, i64 8, i1 false)
  %12 = load ptr, ptr %7, align 8
  %13 = load ptr, ptr %11, align 8
  %14 = getelementptr inbounds ptr, ptr %13, i64 3
  %15 = load ptr, ptr %14, align 8
  %16 = call noundef i32 %15(ptr noundef nonnull align 8 dereferenceable(32) %11)
  %17 = load ptr, ptr %11, align 8
  %18 = getelementptr inbounds ptr, ptr %17, i64 4
  %19 = load ptr, ptr %18, align 8
  %20 = call noundef ptr %19(ptr noundef nonnull align 8 dereferenceable(32) %11)
  %21 = load ptr, ptr %8, align 8
  %22 = getelementptr inbounds %class.Handle, ptr %9, i32 0, i32 0
  %23 = load ptr, ptr %22, align 8
  call void @_ZN24java_lang_StackFrameInfo18set_method_and_bciE6HandleRK12methodHandleiP7oopDescP10JavaThread(ptr %23, ptr noundef nonnull align 8 dereferenceable(16) %12, i32 noundef %16, ptr noundef %20, ptr noundef %21)
  ret void
}