; Function Attrs: mustprogress nounwind uwtable
define hidden void @_ZN15BaseFrameStream15fill_stackframeE6HandleRK12methodHandleP10JavaThread(ptr noundef nonnull align 8 dereferenceable(32) %0, ptr %1, ptr noundef nonnull align 8 dereferenceable(16) %2, ptr noundef %3) local_unnamed_addr #2 align 2 {
  %5 = load ptr, ptr %0, align 8
  %6 = getelementptr inbounds i8, ptr %5, i64 24
  %7 = load ptr, ptr %6, align 8
  %8 = tail call noundef i32 %7(ptr noundef nonnull align 8 dereferenceable(32) %0) #14
  %9 = load ptr, ptr %0, align 8
  %10 = getelementptr inbounds i8, ptr %9, i64 32
  %11 = load ptr, ptr %10, align 8
  %12 = tail call noundef ptr %11(ptr noundef nonnull align 8 dereferenceable(32) %0) #14
  tail call void @_ZN24java_lang_StackFrameInfo18set_method_and_bciE6HandleRK12methodHandleiP7oopDescP10JavaThread(ptr %1, ptr noundef nonnull align 8 dereferenceable(16) %2, i32 noundef %8, ptr noundef %12, ptr noundef %3) #14
  ret void
}